target datalayout = "e-m:e-p270:32:32-p271:32:32-p272:64:64-i64:64-i128:128-f80:128-n8:16:32:64-S128"
target triple = "x86_64-pc-linux-gnu"

%struct.reassembly_table = type { ptr, ptr, ptr, ptr, ptr }
%struct.reassembly_table_functions = type { ptr, ptr, ptr, ptr, ptr, ptr }

@proto_register_cotp.ett = internal global [3 x ptr] [ptr @ett_cotp, ptr @ett_cotp_segment, ptr @ett_cotp_segments], align 16
@.str.157 = private unnamed_addr constant [59 x i8] c"ISO 8073/X.224 COTP Connection-Oriented Transport Protocol\00", align 1
@.str.158 = private unnamed_addr constant [5 x i8] c"COTP\00", align 1
@.str.159 = private unnamed_addr constant [5 x i8] c"cotp\00", align 1
@proto_cotp = internal global i32 0, align 4
@.str.160 = private unnamed_addr constant [11 x i8] c"reassemble\00", align 1
@.str.161 = private unnamed_addr constant [36 x i8] c"Reassemble segmented COTP datagrams\00", align 1
@.str.162 = private unnamed_addr constant [175 x i8] c"Whether segmented COTP datagrams should be reassembled. To use this option, you must also enable \22Allow subdissectors to reassemble TCP streams\22 in the TCP protocol settings.\00", align 1
@cotp_reassemble = internal global i8 1, align 1
@.str.163 = private unnamed_addr constant [13 x i8] c"tsap_display\00", align 1
@.str.164 = private unnamed_addr constant [34 x i8] c"Display TSAPs as strings or bytes\00", align 1
@.str.165 = private unnamed_addr constant [30 x i8] c"How TSAPs should be displayed\00", align 1
@tsap_display = internal global i32 0, align 4
@.str.166 = private unnamed_addr constant [11 x i8] c"decode_atn\00", align 1
@.str.167 = private unnamed_addr constant [17 x i8] c"Decode ATN TPDUs\00", align 1
@.str.168 = private unnamed_addr constant [209 x i8] c"Whether to decode OSI TPDUs with ATN (Aeronautical Telecommunications Network) extensions. To use this option, you must also enable \22Always try to decode NSDU as transport PDUs\22 in the CLNP protocol settings.\00", align 1
@cotp_decode_atn = internal global i8 0, align 1
@.str.169 = private unnamed_addr constant [8 x i8] c"cotp_cr\00", align 1
@.str.170 = private unnamed_addr constant [34 x i8] c"COTP CR (Connect Request) payload\00", align 1
@cotp_cr_heur_subdissector_list = internal global ptr null, align 8
@.str.171 = private unnamed_addr constant [8 x i8] c"cotp_cc\00", align 1
@.str.172 = private unnamed_addr constant [34 x i8] c"COTP CC (Connect Confirm) payload\00", align 1
@cotp_cc_heur_subdissector_list = internal global ptr null, align 8
@.str.173 = private unnamed_addr constant [8 x i8] c"cotp_is\00", align 1
@.str.174 = private unnamed_addr constant [34 x i8] c"COTP IS (Inactive Subset) payload\00", align 1
@cotp_is_heur_subdissector_list = internal global ptr null, align 8
@.str.175 = private unnamed_addr constant [23 x i8] c"COTP DT (Data) payload\00", align 1
@cotp_heur_subdissector_list = internal global ptr null, align 8
@.str.176 = private unnamed_addr constant [6 x i8] c"ositp\00", align 1
@ositp_handle = internal global ptr null, align 8
@.str.177 = private unnamed_addr constant [15 x i8] c"ositp_inactive\00", align 1
@cotp_reassembly_table = internal global %struct.reassembly_table zeroinitializer, align 8
@addresses_reassembly_table_functions = external constant %struct.reassembly_table_functions, align 8

; Function Attrs: null_pointer_is_valid sspstrong uwtable
define hidden void @proto_register_cotp() #0 {
  %1 = alloca ptr, align 8
  %2 = alloca ptr, align 8
  call void @llvm.lifetime.start.p0(i64 8, ptr %1) #7
  call void @llvm.lifetime.start.p0(i64 8, ptr %2) #7
  %3 = call i32 @proto_register_protocol(ptr noundef @.str.157, ptr noundef @.str.158, ptr noundef @.str.159)
  store i32 %3, ptr @proto_cotp, align 4
  %4 = load i32, ptr @proto_cotp, align 4
  call void @proto_register_field_array(i32 noundef %4, ptr noundef @proto_register_cotp.hf, i32 noundef 68)
  call void @proto_register_subtree_array(ptr noundef @proto_register_cotp.ett, i32 noundef 3)
  %5 = load i32, ptr @proto_cotp, align 4
  %6 = call ptr @expert_register_protocol(i32 noundef %5)
  store ptr %6, ptr %2, align 8
  %7 = load ptr, ptr %2, align 8
  call void @expert_register_field_array(ptr noundef %7, ptr noundef @proto_register_cotp.ei, i32 noundef 8)
  %8 = load i32, ptr @proto_cotp, align 4
  %9 = call ptr @prefs_register_protocol(i32 noundef %8, ptr noundef null)
  store ptr %9, ptr %1, align 8
  %10 = load ptr, ptr %1, align 8
  call void @prefs_register_bool_preference(ptr noundef %10, ptr noundef @.str.160, ptr noundef @.str.161, ptr noundef @.str.162, ptr noundef @cotp_reassemble)
  %11 = load ptr, ptr %1, align 8
  call void @prefs_register_enum_preference(ptr noundef %11, ptr noundef @.str.163, ptr noundef @.str.164, ptr noundef @.str.165, ptr noundef @tsap_display, ptr noundef @tsap_display_options, i1 noundef zeroext false)
  %12 = load ptr, ptr %1, align 8
  call void @prefs_register_bool_preference(ptr noundef %12, ptr noundef @.str.166, ptr noundef @.str.167, ptr noundef @.str.168, ptr noundef @cotp_decode_atn)
  %13 = load i32, ptr @proto_cotp, align 4
  %14 = call ptr @register_heur_dissector_list_with_description(ptr noundef @.str.169, ptr noundef @.str.170, i32 noundef %13)
  store ptr %14, ptr @cotp_cr_heur_subdissector_list, align 8
  %15 = load i32, ptr @proto_cotp, align 4
  %16 = call ptr @register_heur_dissector_list_with_description(ptr noundef @.str.171, ptr noundef @.str.172, i32 noundef %15)
  store ptr %16, ptr @cotp_cc_heur_subdissector_list, align 8
  %17 = load i32, ptr @proto_cotp, align 4
  %18 = call ptr @register_heur_dissector_list_with_description(ptr noundef @.str.173, ptr noundef @.str.174, i32 noundef %17)
  store ptr %18, ptr @cotp_is_heur_subdissector_list, align 8
  %19 = load i32, ptr @proto_cotp, align 4
  %20 = call ptr @register_heur_dissector_list_with_description(ptr noundef @.str.159, ptr noundef @.str.175, i32 noundef %19)
  store ptr %20, ptr @cotp_heur_subdissector_list, align 8
  %21 = load i32, ptr @proto_cotp, align 4
  %22 = call ptr @register_dissector(ptr noundef @.str.176, ptr noundef @dissect_ositp, i32 noundef %21)
  store ptr %22, ptr @ositp_handle, align 8
  %23 = load i32, ptr @proto_cotp, align 4
  %24 = call ptr @register_dissector(ptr noundef @.str.177, ptr noundef @dissect_ositp_inactive, i32 noundef %23)
  call void @register_init_routine(ptr noundef @cotp_reassemble_init)
  call void @reassembly_table_register(ptr noundef @cotp_reassembly_table, ptr noundef @addresses_reassembly_table_functions)
  call void @llvm.lifetime.end.p0(i64 8, ptr %2) #7
  call void @llvm.lifetime.end.p0(i64 8, ptr %1) #7
  ret void
}