; Function Attrs: null_pointer_is_valid sspstrong uwtable
define hidden void @proto_register_cotp() local_unnamed_addr #0 {
  %1 = tail call i32 @proto_register_protocol(ptr noundef nonnull @.str.157, ptr noundef nonnull @.str.158, ptr noundef nonnull @.str.159)
  store i32 %1, ptr @proto_cotp, align 4
  tail call void @proto_register_field_array(i32 noundef %1, ptr noundef nonnull @proto_register_cotp.hf, i32 noundef 68)
  tail call void @proto_register_subtree_array(ptr noundef nonnull @proto_register_cotp.ett, i32 noundef 3)
  %2 = load i32, ptr @proto_cotp, align 4
  %3 = tail call ptr @expert_register_protocol(i32 noundef %2)
  tail call void @expert_register_field_array(ptr noundef %3, ptr noundef nonnull @proto_register_cotp.ei, i32 noundef 8)
  %4 = load i32, ptr @proto_cotp, align 4
  %5 = tail call ptr @prefs_register_protocol(i32 noundef %4, ptr noundef null)
  tail call void @prefs_register_bool_preference(ptr noundef %5, ptr noundef nonnull @.str.160, ptr noundef nonnull @.str.161, ptr noundef nonnull @.str.162, ptr noundef nonnull @cotp_reassemble)
  tail call void @prefs_register_enum_preference(ptr noundef %5, ptr noundef nonnull @.str.163, ptr noundef nonnull @.str.164, ptr noundef nonnull @.str.165, ptr noundef nonnull @tsap_display, ptr noundef nonnull @tsap_display_options, i1 noundef zeroext false)
  tail call void @prefs_register_bool_preference(ptr noundef %5, ptr noundef nonnull @.str.166, ptr noundef nonnull @.str.167, ptr noundef nonnull @.str.168, ptr noundef nonnull @cotp_decode_atn)
  %6 = load i32, ptr @proto_cotp, align 4
  %7 = tail call ptr @register_heur_dissector_list_with_description(ptr noundef nonnull @.str.169, ptr noundef nonnull @.str.170, i32 noundef %6)
  store ptr %7, ptr @cotp_cr_heur_subdissector_list, align 8
  %8 = load i32, ptr @proto_cotp, align 4
  %9 = tail call ptr @register_heur_dissector_list_with_description(ptr noundef nonnull @.str.171, ptr noundef nonnull @.str.172, i32 noundef %8)
  store ptr %9, ptr @cotp_cc_heur_subdissector_list, align 8
  %10 = load i32, ptr @proto_cotp, align 4
  %11 = tail call ptr @register_heur_dissector_list_with_description(ptr noundef nonnull @.str.173, ptr noundef nonnull @.str.174, i32 noundef %10)
  store ptr %11, ptr @cotp_is_heur_subdissector_list, align 8
  %12 = load i32, ptr @proto_cotp, align 4
  %13 = tail call ptr @register_heur_dissector_list_with_description(ptr noundef nonnull @.str.159, ptr noundef nonnull @.str.175, i32 noundef %12)
  store ptr %13, ptr @cotp_heur_subdissector_list, align 8
  %14 = load i32, ptr @proto_cotp, align 4
  %15 = tail call ptr @register_dissector(ptr noundef nonnull @.str.176, ptr noundef nonnull @dissect_ositp, i32 noundef %14)
  store ptr %15, ptr @ositp_handle, align 8
  %16 = load i32, ptr @proto_cotp, align 4
  %17 = tail call ptr @register_dissector(ptr noundef nonnull @.str.177, ptr noundef nonnull @dissect_ositp_inactive, i32 noundef %16)
  tail call void @register_init_routine(ptr noundef nonnull @cotp_reassemble_init)
  tail call void @reassembly_table_register(ptr noundef nonnull @cotp_reassembly_table, ptr noundef nonnull @addresses_reassembly_table_functions)
  ret void
}